BL51 BANKED LINKER/LOCATER V6.22                                                        03/19/2025  18:09:26  PAGE 1


BL51 BANKED LINKER/LOCATER V6.22, INVOKED BY:
D:\KEIL5\C51\BIN\BL51.EXE .\Objects\STARTUP.obj, .\Objects\main.obj, .\Objects\uart.obj, .\Objects\delay.obj, .\Objects\
>> IRM.obj, .\Objects\ds18b20.obj, .\Objects\eeprom.obj TO .\Objects\test PRINT (.\Listings\test.m51) RAMSIZE (256) DISA
>> BLEWARNING (16)


MEMORY MODEL: SMALL WITH FLOATING POINT ARITHMETIC


INPUT MODULES INCLUDED:
  .\Objects\STARTUP.obj (?C_STARTUP)
  .\Objects\main.obj (MAIN)
  .\Objects\uart.obj (UART)
  .\Objects\delay.obj (DELAY)
  .\Objects\IRM.obj (IRM)
  .\Objects\ds18b20.obj (DS18B20)
  .\Objects\eeprom.obj (EEPROM)
  D:\KEIL5\C51\LIB\C51FPS.LIB (?C?FPMUL)
  D:\KEIL5\C51\LIB\C51FPS.LIB (?C?FPCMP)
  D:\KEIL5\C51\LIB\C51FPS.LIB (?C?FCAST)
  D:\KEIL5\C51\LIB\C51FPS.LIB (PRINTF)
  D:\KEIL5\C51\LIB\C51FPS.LIB (?C?FPGETOPN)
  D:\KEIL5\C51\LIB\C51FPS.LIB (?C?FPROUND)
  D:\KEIL5\C51\LIB\C51FPS.LIB (?C?FPCONVERT)
  D:\KEIL5\C51\LIB\C51FPS.LIB (?C?FPADD)
  D:\KEIL5\C51\LIB\C51FPS.LIB (?C?FPDIV)
  D:\KEIL5\C51\LIB\C51FPS.LIB (?C?FTNPWR)
  D:\KEIL5\C51\LIB\C51S.LIB (?C_INIT)
  D:\KEIL5\C51\LIB\C51S.LIB (?C?CLDPTR)
  D:\KEIL5\C51\LIB\C51S.LIB (?C?CLDOPTR)
  D:\KEIL5\C51\LIB\C51S.LIB (?C?CSTPTR)
  D:\KEIL5\C51\LIB\C51S.LIB (?C?LNEG)
  D:\KEIL5\C51\LIB\C51S.LIB (?C?PLDIIDATA)
  D:\KEIL5\C51\LIB\C51S.LIB (?C?CCASE)


LINK MAP OF MODULE:  .\Objects\test (?C_STARTUP)


            TYPE    BASE      LENGTH    RELOCATION   SEGMENT NAME
            -----------------------------------------------------

            * * * * * * *   D A T A   M E M O R Y   * * * * * * *
            REG     0000H     0008H     ABSOLUTE     "REG BANK 0"
            DATA    0008H     0012H     UNIT         ?DT?UART
            DATA    001AH     0003H     UNIT         ?DT?_UARTSENDSTR?UART
            DATA    001DH     0001H     UNIT         ?DT?MAIN
                    001EH     0002H                  *** GAP ***
            BIT     0020H.0   0001H.1   UNIT         _BIT_GROUP_
            BIT     0021H.1   0000H.3   UNIT         ?BI?IRM
            BIT     0021H.4   0000H.1   UNIT         ?BI?UART
                    0021H.5   0000H.3                *** GAP ***
            DATA    0022H     002BH     UNIT         ?DT?IRM
            DATA    004DH     0021H     UNIT         _DATA_GROUP_
            IDATA   006EH     0001H     UNIT         ?STACK

            * * * * * * *   C O D E   M E M O R Y   * * * * * * *
            CODE    0000H     0003H     ABSOLUTE     
BL51 BANKED LINKER/LOCATER V6.22                                                      03/19/2025  18:09:26  PAGE 2


            CODE    0003H     0003H     ABSOLUTE     
            CODE    0006H     0003H     UNIT         ?PR?TIM0_ISR?IRM
                    0009H     0002H                  *** GAP ***
            CODE    000BH     0003H     ABSOLUTE     
            CODE    000EH     0011H     UNIT         ?PR?_IAPSAFEWRITE?EEPROM
                    001FH     0004H                  *** GAP ***
            CODE    0023H     0003H     ABSOLUTE     
            CODE    0026H     05DDH     UNIT         ?C?LIB_CODE
            CODE    0603H     046FH     UNIT         ?PR?PRINTF?PRINTF
            CODE    0A72H     00DEH     UNIT         ?CO?MAIN
            CODE    0B50H     00DCH     UNIT         ?PR?MAIN?MAIN
            CODE    0C2CH     008CH     UNIT         ?C_C51STARTUP
            CODE    0CB8H     004EH     UNIT         ?PR?DS18B20_GETTEMP?DS18B20
            CODE    0D06H     004BH     UNIT         ?PR?SAVE_SETTINGS?MAIN
            CODE    0D51H     0041H     UNIT         ?PR?EX0_ISR?IRM
            CODE    0D92H     003EH     UNIT         ?PR?IR_WORK?IRM
            CODE    0DD0H     003CH     UNIT         ?PR?RESTORE_SETTINGS?MAIN
            CODE    0E0CH     0038H     UNIT         ?PR?IRCORDPRO?IRM
            CODE    0E44H     0036H     UNIT         ?PR?DS18B20_READBYTE?DS18B20
            CODE    0E7AH     002DH     UNIT         ?PR?UARTISR?UART
            CODE    0EA7H     002CH     UNIT         ?PR?_DS18B20_WRITEBYTE?DS18B20
            CODE    0ED3H     0029H     UNIT         ?CO?IRM
            CODE    0EFCH     0028H     UNIT         ?PR?_IAPPROGRAM?EEPROM
            CODE    0F24H     0026H     UNIT         ?PR?_IAPERASE?EEPROM
            CODE    0F4AH     0025H     UNIT         ?PR?_UARTSENDSTR?UART
            CODE    0F6FH     0021H     UNIT         ?PR?DS18B20_INIT?DS18B20
            CODE    0F90H     001CH     UNIT         ?PR?SYSTEM_INIT?MAIN
            CODE    0FACH     001CH     UNIT         ?PR?_IAPREAD?EEPROM
            CODE    0FC8H     001AH     UNIT         ?PR?_DELAY_US?DELAY
            CODE    0FE2H     0018H     UNIT         ?PR?UARTINIT?UART
            CODE    0FFAH     0018H     UNIT         ?PR?_DELAY_MS?DELAY
            CODE    1012H     000DH     UNIT         ?PR?TIMER0_INIT?IRM
            CODE    101FH     000DH     UNIT         ?PR?IAPIDLE?EEPROM
            CODE    102CH     0008H     UNIT         ?PR?_UARTSEND?UART
            CODE    1034H     0008H     UNIT         ?PR?_PUTCHAR?UART
            CODE    103CH     0007H     UNIT         ?PR?INT0_INIT?IRM
            CODE    1043H     0006H     UNIT         ?C_INITSEG
            CODE    1049H     0006H     UNIT         ?PR?IRM_INIT?IRM



OVERLAY MAP OF MODULE:   .\Objects\test (?C_STARTUP)


SEGMENT                                   BIT_GROUP          DATA_GROUP 
  +--> CALLED SEGMENT                  START    LENGTH     START    LENGTH
--------------------------------------------------------------------------
?C_C51STARTUP                          -----    -----      -----    -----
  +--> ?PR?MAIN?MAIN
  +--> ?C_INITSEG

?PR?MAIN?MAIN                          -----    -----      004DH    0004H
  +--> ?PR?SYSTEM_INIT?MAIN
  +--> ?CO?MAIN
  +--> ?PR?PRINTF?PRINTF
  +--> ?PR?RESTORE_SETTINGS?MAIN
  +--> ?PR?DS18B20_GETTEMP?DS18B20
BL51 BANKED LINKER/LOCATER V6.22                                                      03/19/2025  18:09:26  PAGE 3


  +--> ?PR?IRCORDPRO?IRM
  +--> ?PR?SAVE_SETTINGS?MAIN

?PR?SYSTEM_INIT?MAIN                   -----    -----      -----    -----
  +--> ?PR?UARTINIT?UART
  +--> ?PR?IRM_INIT?IRM
  +--> ?PR?DS18B20_INIT?DS18B20

?PR?IRM_INIT?IRM                       -----    -----      -----    -----
  +--> ?PR?TIMER0_INIT?IRM
  +--> ?PR?INT0_INIT?IRM

?PR?DS18B20_INIT?DS18B20               0020H.0  0000H.1    -----    -----
  +--> ?PR?_DELAY_US?DELAY

?PR?PRINTF?PRINTF                      0020H.0  0001H.1    0052H    001CH
  +--> ?PR?_PUTCHAR?UART

?PR?RESTORE_SETTINGS?MAIN              -----    -----      0051H    0001H
  +--> ?PR?_IAPREAD?EEPROM
  +--> ?CO?MAIN
  +--> ?PR?PRINTF?PRINTF

?PR?_IAPREAD?EEPROM                    -----    -----      -----    -----
  +--> ?PR?IAPIDLE?EEPROM

?PR?DS18B20_GETTEMP?DS18B20            -----    -----      0051H    0001H
  +--> ?PR?DS18B20_INIT?DS18B20
  +--> ?PR?_DS18B20_WRITEBYTE?DS18B20
  +--> ?PR?_DELAY_MS?DELAY
  +--> ?PR?DS18B20_READBYTE?DS18B20

?PR?_DS18B20_WRITEBYTE?DS18B20         -----    -----      0052H    0002H
  +--> ?PR?_DELAY_US?DELAY

?PR?_DELAY_MS?DELAY                    -----    -----      -----    -----
  +--> ?PR?_DELAY_US?DELAY

?PR?DS18B20_READBYTE?DS18B20           -----    -----      0052H    0002H
  +--> ?PR?_DELAY_US?DELAY

?PR?SAVE_SETTINGS?MAIN                 -----    -----      -----    -----
  +--> ?PR?_IAPERASE?EEPROM
  +--> ?PR?_IAPSAFEWRITE?EEPROM
  +--> ?CO?MAIN
  +--> ?PR?PRINTF?PRINTF

?PR?_IAPERASE?EEPROM                   -----    -----      -----    -----
  +--> ?PR?IAPIDLE?EEPROM

?PR?_IAPSAFEWRITE?EEPROM               -----    -----      -----    -----
  +--> ?PR?_IAPREAD?EEPROM
  +--> ?PR?_IAPPROGRAM?EEPROM

?PR?_IAPPROGRAM?EEPROM                 -----    -----      -----    -----
  +--> ?PR?IAPIDLE?EEPROM

BL51 BANKED LINKER/LOCATER V6.22                                                      03/19/2025  18:09:26  PAGE 4




SYMBOL TABLE OF MODULE:  .\Objects\test (?C_STARTUP)

  VALUE           TYPE          NAME
  ----------------------------------

  -------         MODULE        ?C_STARTUP
  C:0C2CH         SEGMENT       ?C_C51STARTUP
  I:006EH         SEGMENT       ?STACK
  C:0000H         PUBLIC        ?C_STARTUP
  D:00E0H         SYMBOL        ACC
  D:00F0H         SYMBOL        B
  D:0083H         SYMBOL        DPH
  D:0082H         SYMBOL        DPL
  N:0000H         SYMBOL        IBPSTACK
  N:0100H         SYMBOL        IBPSTACKTOP
  N:0080H         SYMBOL        IDATALEN
  C:0C2FH         SYMBOL        IDATALOOP
  N:0000H         SYMBOL        PBPSTACK
  N:0100H         SYMBOL        PBPSTACKTOP
  N:0000H         SYMBOL        PDATALEN
  N:0000H         SYMBOL        PDATASTART
  N:0000H         SYMBOL        PPAGE
  N:0000H         SYMBOL        PPAGEENABLE
  D:00A0H         SYMBOL        PPAGE_SFR
  D:0081H         SYMBOL        SP
  C:0C2CH         SYMBOL        STARTUP1
  N:0000H         SYMBOL        XBPSTACK
  N:0000H         SYMBOL        XBPSTACKTOP
  N:0000H         SYMBOL        XDATALEN
  N:0000H         SYMBOL        XDATASTART
  C:0000H         LINE#         126
  C:0C2CH         LINE#         133
  C:0C2EH         LINE#         134
  C:0C2FH         LINE#         135
  C:0C30H         LINE#         136
  C:0C32H         LINE#         185
  C:0C35H         LINE#         196
  -------         ENDMOD        ?C_STARTUP

  -------         MODULE        MAIN
  C:0000H         SYMBOL        _ICE_DUMMY_
  C:0F90H         PUBLIC        System_Init
  D:0080H         PUBLIC        P0
  D:00B2H         PUBLIC        P3M0
  D:0090H         PUBLIC        P1
  D:00B1H         PUBLIC        P3M1
  D:00A0H         PUBLIC        P2
  D:00CAH         PUBLIC        P5M0
  D:00B0H         PUBLIC        P3
  D:00C9H         PUBLIC        P5M1
  D:00C0H         PUBLIC        P4
  D:00C8H         PUBLIC        P5
  D:00E8H         PUBLIC        P6
  B:00A8H.7       PUBLIC        EA
  D:00F8H         PUBLIC        P7
BL51 BANKED LINKER/LOCATER V6.22                                                      03/19/2025  18:09:26  PAGE 5


  D:00BAH         PUBLIC        P_SW2
  D:00A8H         PUBLIC        IE
  D:00B8H         PUBLIC        IP
  C:0DD0H         PUBLIC        Restore_Settings
  D:00D8H         PUBLIC        CCON
  C:0B50H         PUBLIC        main
  D:0098H         PUBLIC        SCON
  D:001DH         PUBLIC        temp_flag
  D:0088H         PUBLIC        TCON
  B:00C8H.4       PUBLIC        P54
  B:00C8H.5       PUBLIC        P55
  C:0D06H         PUBLIC        Save_Settings
  D:00D0H         PUBLIC        PSW
  -------         PROC          MAIN
  -------         DO            
  D:004DH         SYMBOL        temp
  -------         ENDDO         
  C:0B50H         LINE#         13
  C:0B50H         LINE#         14
  C:0B50H         LINE#         16
  C:0B53H         LINE#         17
  C:0B56H         LINE#         18
  C:0B5FH         LINE#         19
  C:0B62H         LINE#         20
  C:0B62H         LINE#         21
  C:0B62H         LINE#         22
  C:0B6DH         LINE#         23
  C:0B7EH         LINE#         25
  C:0B81H         LINE#         26
  C:0B84H         LINE#         27
  C:0B86H         LINE#         28
  C:0B86H         LINE#         31
  C:0B8AH         LINE#         32
  C:0B9EH         LINE#         33
  C:0BA0H         LINE#         34
  C:0BA2H         LINE#         35
  C:0BB8H         LINE#         36
  C:0BBAH         LINE#         37
  C:0BBCH         LINE#         38
  C:0BBEH         LINE#         39
  C:0BC0H         LINE#         40
  C:0BC2H         LINE#         41
  C:0BC2H         LINE#         42
  C:0BC2H         LINE#         45
  C:0BC5H         LINE#         46
  C:0BD4H         LINE#         48
  C:0BE5H         LINE#         49
  C:0BE5H         LINE#         50
  C:0BEEH         LINE#         51
  C:0BF1H         LINE#         52
  C:0BF3H         LINE#         53
  C:0BF5H         LINE#         54
  C:0BF5H         LINE#         55
  C:0BF7H         LINE#         57
  C:0BF7H         LINE#         58
  C:0C00H         LINE#         59
  C:0C03H         LINE#         60
BL51 BANKED LINKER/LOCATER V6.22                                                      03/19/2025  18:09:26  PAGE 6


  C:0C05H         LINE#         61
  C:0C07H         LINE#         62
  C:0C07H         LINE#         63
  C:0C09H         LINE#         64
  C:0C09H         LINE#         65
  C:0C12H         LINE#         66
  C:0C14H         LINE#         67
  C:0C16H         LINE#         68
  C:0C19H         LINE#         69
  C:0C1CH         LINE#         70
  C:0C1EH         LINE#         72
  C:0C1EH         LINE#         73
  C:0C27H         LINE#         75
  C:0C27H         LINE#         76
  C:0C27H         LINE#         78
  C:0C29H         LINE#         79
  C:0C29H         LINE#         81
  -------         ENDPROC       MAIN
  -------         PROC          SYSTEM_INIT
  C:0F90H         LINE#         85
  C:0F90H         LINE#         86
  C:0F90H         LINE#         87
  C:0F93H         LINE#         88
  C:0F96H         LINE#         90
  C:0F99H         LINE#         91
  C:0F9CH         LINE#         92
  C:0F9EH         LINE#         93
  C:0FA0H         LINE#         94
  C:0FA3H         LINE#         95
  C:0FA6H         LINE#         96
  C:0FA9H         LINE#         97
  C:0FABH         LINE#         98
  -------         ENDPROC       SYSTEM_INIT
  -------         PROC          RESTORE_SETTINGS
  -------         DO            
  D:0051H         SYMBOL        gpio_status
  -------         ENDDO         
  C:0DD0H         LINE#         101
  C:0DD0H         LINE#         102
  C:0DD0H         LINE#         103
  C:0DD9H         LINE#         104
  C:0DE2H         LINE#         105
  C:0DEDH         LINE#         106
  C:0DF8H         LINE#         108
  -------         ENDPROC       RESTORE_SETTINGS
  -------         PROC          SAVE_SETTINGS
  C:0D06H         LINE#         111
  C:0D06H         LINE#         112
  C:0D06H         LINE#         113
  C:0D0DH         LINE#         114
  C:0D16H         LINE#         115
  C:0D35H         LINE#         116
  -------         ENDPROC       SAVE_SETTINGS
  -------         ENDMOD        MAIN

  -------         MODULE        UART
  C:0000H         SYMBOL        _ICE_DUMMY_
BL51 BANKED LINKER/LOCATER V6.22                                                      03/19/2025  18:09:26  PAGE 7


  D:0080H         PUBLIC        P0
  D:0090H         PUBLIC        P1
  D:00A0H         PUBLIC        P2
  D:00B0H         PUBLIC        P3
  D:00C0H         PUBLIC        P4
  D:00C8H         PUBLIC        P5
  D:00E8H         PUBLIC        P6
  D:00F8H         PUBLIC        P7
  D:00A8H         PUBLIC        IE
  D:00B8H         PUBLIC        IP
  B:0098H.0       PUBLIC        RI
  B:0098H.1       PUBLIC        TI
  D:00D8H         PUBLIC        CCON
  C:102CH         PUBLIC        _UartSend
  D:0099H         PUBLIC        SBUF
  D:0098H         PUBLIC        SCON
  C:0FE2H         PUBLIC        UartInit
  D:0089H         PUBLIC        TMOD
  D:0088H         PUBLIC        TCON
  D:008EH         PUBLIC        AUXR
  B:0021H.4       PUBLIC        busy
  D:0008H         PUBLIC        rptr
  D:008DH         PUBLIC        TH1
  C:0E7AH         PUBLIC        UartIsr
  D:0009H         PUBLIC        wptr
  D:008BH         PUBLIC        TL1
  B:0088H.6       PUBLIC        TR1
  C:0F4AH         PUBLIC        _UartSendStr
  D:00D0H         PUBLIC        PSW
  C:1034H         PUBLIC        _putchar
  D:000AH         PUBLIC        buffer
  -------         PROC          UARTINIT
  C:0FE2H         LINE#         12
  C:0FE2H         LINE#         13
  C:0FE2H         LINE#         15
  C:0FE5H         LINE#         16
  C:0FE8H         LINE#         17
  C:0FEBH         LINE#         18
  C:0FEEH         LINE#         19
  C:0FF0H         LINE#         20
  C:0FF3H         LINE#         21
  C:0FF5H         LINE#         22
  C:0FF7H         LINE#         23
  C:0FF9H         LINE#         24
  -------         ENDPROC       UARTINIT
  -------         PROC          _UARTSEND
  D:0007H         SYMBOL        dat
  C:102CH         LINE#         25
  C:102CH         LINE#         26
  C:102CH         LINE#         27
  C:102FH         LINE#         28
  C:1031H         LINE#         29
  C:1033H         LINE#         30
  -------         ENDPROC       _UARTSEND
  -------         PROC          _UARTSENDSTR
  D:001AH         SYMBOL        p
  C:0F4AH         LINE#         31
BL51 BANKED LINKER/LOCATER V6.22                                                      03/19/2025  18:09:26  PAGE 8


  C:0F50H         LINE#         32
  C:0F50H         LINE#         33
  C:0F5BH         LINE#         34
  C:0F5BH         LINE#         35
  C:0F6CH         LINE#         36
  C:0F6EH         LINE#         37
  -------         ENDPROC       _UARTSENDSTR
  -------         PROC          UARTISR
  C:0E7AH         LINE#         40
  C:0E85H         LINE#         42
  C:0E88H         LINE#         43
  C:0E88H         LINE#         44
  C:0E8AH         LINE#         45
  C:0E8CH         LINE#         46
  C:0E8CH         LINE#         47
  C:0E8FH         LINE#         48
  C:0E8FH         LINE#         49
  C:0E91H         LINE#         50
  C:0E9BH         LINE#         51
  C:0E9EH         LINE#         52
  C:0E9EH         LINE#         53
  -------         ENDPROC       UARTISR
  -------         PROC          _PUTCHAR
  D:0007H         SYMBOL        ch
  C:1034H         LINE#         55
  C:1034H         LINE#         56
  C:1034H         LINE#         57
  C:1036H         LINE#         58
  C:1039H         LINE#         59
  C:103BH         LINE#         60
  C:103BH         LINE#         61
  -------         ENDPROC       _PUTCHAR
  -------         ENDMOD        UART

  -------         MODULE        DELAY
  C:0000H         SYMBOL        _ICE_DUMMY_
  D:0080H         PUBLIC        P0
  D:0090H         PUBLIC        P1
  D:00A0H         PUBLIC        P2
  D:00B0H         PUBLIC        P3
  D:00C0H         PUBLIC        P4
  D:00C8H         PUBLIC        P5
  D:00E8H         PUBLIC        P6
  D:00F8H         PUBLIC        P7
  D:00A8H         PUBLIC        IE
  D:00B8H         PUBLIC        IP
  D:00D8H         PUBLIC        CCON
  C:0FFAH         PUBLIC        _Delay_ms
  D:0098H         PUBLIC        SCON
  D:0088H         PUBLIC        TCON
  C:0FC8H         PUBLIC        _Delay_us
  D:00D0H         PUBLIC        PSW
  -------         PROC          _DELAY_US
  D:0006H         SYMBOL        us
  C:0FC8H         LINE#         3
  C:0FC8H         LINE#         4
  C:0FC8H         LINE#         5
BL51 BANKED LINKER/LOCATER V6.22                                                      03/19/2025  18:09:26  PAGE 9


  C:0FD2H         LINE#         6
  C:0FD6H         LINE#         7
  C:0FDAH         LINE#         8
  C:0FDEH         LINE#         9
  C:0FDFH         LINE#         10
  C:0FE1H         LINE#         11
  -------         ENDPROC       _DELAY_US
  -------         PROC          _DELAY_MS
  D:0002H         SYMBOL        ms
  C:0FFAH         LINE#         13
  C:0FFEH         LINE#         14
  C:0FFEH         LINE#         15
  C:1008H         LINE#         16
  C:100FH         LINE#         17
  C:1011H         LINE#         18
  -------         ENDPROC       _DELAY_MS
  -------         ENDMOD        DELAY

  -------         MODULE        IRM
  C:0000H         SYMBOL        _ICE_DUMMY_
  D:0080H         PUBLIC        P0
  D:0090H         PUBLIC        P1
  D:00A0H         PUBLIC        P2
  D:00B0H         PUBLIC        P3
  D:00C0H         PUBLIC        P4
  D:00C8H         PUBLIC        P5
  D:00E8H         PUBLIC        P6
  B:00A8H.7       PUBLIC        EA
  D:00F8H         PUBLIC        P7
  D:0023H         PUBLIC        irtime
  D:00A8H         PUBLIC        IE
  C:103CH         SYMBOL        INT0_Init
  D:00B8H         PUBLIC        IP
  C:0D51H         PUBLIC        EX0_ISR
  D:00D8H         PUBLIC        CCON
  C:1012H         SYMBOL        Timer0_Init
  C:0006H         PUBLIC        tim0_isr
  D:0098H         PUBLIC        SCON
  D:0089H         PUBLIC        TMOD
  D:0088H         PUBLIC        TCON
  B:0021H.2       PUBLIC        irok
  B:00C8H.4       PUBLIC        P54
  C:0E0CH         PUBLIC        Ircordpro
  B:00C8H.5       PUBLIC        P55
  D:0024H         PUBLIC        IRcord
  B:00A8H.1       PUBLIC        ET0
  D:008CH         PUBLIC        TH0
  B:00A8H.0       PUBLIC        EX0
  B:0088H.0       PUBLIC        IT0
  D:008AH         PUBLIC        TL0
  B:0088H.4       PUBLIC        TR0
  C:1049H         PUBLIC        irm_init
  C:0D92H         PUBLIC        Ir_work
  B:0021H.3       PUBLIC        irpro_ok
  D:002CH         PUBLIC        irdata
  D:00D0H         PUBLIC        PSW
  -------         PROC          IR_WORK
BL51 BANKED LINKER/LOCATER V6.22                                                      03/19/2025  18:09:26  PAGE 10


  C:0D92H         LINE#         15
  C:0D92H         LINE#         16
  C:0D92H         LINE#         18
  C:0D9BH         LINE#         19
  C:0D9BH         LINE#         20
  C:0DA4H         LINE#         21
  C:0DA6H         LINE#         22
  C:0DA8H         LINE#         23
  C:0DB1H         LINE#         24
  C:0DB1H         LINE#         25
  C:0DBAH         LINE#         26
  C:0DBCH         LINE#         27
  C:0DBEH         LINE#         29
  C:0DBEH         LINE#         30
  C:0DCDH         LINE#         31
  C:0DCDH         LINE#         32
  C:0DCFH         LINE#         33
  -------         ENDPROC       IR_WORK
  -------         PROC          IRCORDPRO
  -------         DO            
  D:0005H         SYMBOL        i
  D:0004H         SYMBOL        j
  D:0006H         SYMBOL        k
  D:0003H         SYMBOL        cord
  D:0007H         SYMBOL        value
  -------         ENDDO         
  C:0E0CH         LINE#         35
  C:0E0CH         LINE#         36
  C:0E0CH         LINE#         38
  C:0E0EH         LINE#         39
  C:0E10H         LINE#         40
  C:0E10H         LINE#         41
  C:0E12H         LINE#         42
  C:0E12H         LINE#         43
  C:0E17H         LINE#         44
  C:0E1CH         LINE#         45
  C:0E1FH         LINE#         46
  C:0E25H         LINE#         47
  C:0E25H         LINE#         48
  C:0E29H         LINE#         49
  C:0E29H         LINE#         50
  C:0E2AH         LINE#         51
  C:0E2EH         LINE#         52
  C:0E3BH         LINE#         53
  C:0E3DH         LINE#         54
  C:0E41H         LINE#         55
  C:0E43H         LINE#         56
  -------         ENDPROC       IRCORDPRO
  -------         PROC          TIMER0_INIT
  C:1012H         LINE#         58
  C:1012H         LINE#         59
  C:1012H         LINE#         60
  C:1015H         LINE#         61
  C:1018H         LINE#         62
  C:101AH         LINE#         63
  C:101CH         LINE#         64
  C:101EH         LINE#         65
BL51 BANKED LINKER/LOCATER V6.22                                                      03/19/2025  18:09:26  PAGE 11


  -------         ENDPROC       TIMER0_INIT
  -------         PROC          INT0_INIT
  C:103CH         LINE#         66
  C:103CH         LINE#         67
  C:103CH         LINE#         68
  C:103EH         LINE#         69
  C:1040H         LINE#         70
  C:1042H         LINE#         71
  -------         ENDPROC       INT0_INIT
  -------         PROC          IRM_INIT
  C:1049H         LINE#         72
  C:1049H         LINE#         73
  C:1049H         LINE#         74
  C:104CH         LINE#         75
  -------         ENDPROC       IRM_INIT
  -------         PROC          EX0_ISR
  -------         DO            
  D:0022H         SYMBOL        i
  B:0021H.1       SYMBOL        startflag
  -------         ENDDO         
  C:0D51H         LINE#         78
  C:0D5AH         LINE#         82
  C:0D5DH         LINE#         83
  C:0D5DH         LINE#         84
  C:0D6BH         LINE#         85
  C:0D6EH         LINE#         86
  C:0D75H         LINE#         87
  C:0D78H         LINE#         88
  C:0D7AH         LINE#         89
  C:0D7FH         LINE#         90
  C:0D7FH         LINE#         91
  C:0D81H         LINE#         92
  C:0D84H         LINE#         93
  C:0D84H         LINE#         94
  C:0D86H         LINE#         96
  C:0D86H         LINE#         97
  C:0D89H         LINE#         98
  C:0D8BH         LINE#         99
  C:0D8BH         LINE#         100
  -------         ENDPROC       EX0_ISR
  -------         PROC          TIM0_ISR
  C:0006H         LINE#         102
  C:0006H         LINE#         104
  C:0008H         LINE#         105
  -------         ENDPROC       TIM0_ISR
  -------         ENDMOD        IRM

  -------         MODULE        DS18B20
  C:0000H         SYMBOL        _ICE_DUMMY_
  D:0080H         PUBLIC        P0
  D:0090H         PUBLIC        P1
  D:00A0H         PUBLIC        P2
  D:00B0H         PUBLIC        P3
  D:00C0H         PUBLIC        P4
  D:00C8H         PUBLIC        P5
  D:00E8H         PUBLIC        P6
  D:00F8H         PUBLIC        P7
BL51 BANKED LINKER/LOCATER V6.22                                                      03/19/2025  18:09:26  PAGE 12


  D:00A8H         PUBLIC        IE
  D:00B8H         PUBLIC        IP
  C:0E44H         SYMBOL        DS18B20_ReadByte
  C:0F6FH         PUBLIC        DS18B20_Init
  D:00D8H         PUBLIC        CCON
  C:0EA7H         SYMBOL        _DS18B20_WriteByte
  D:0098H         PUBLIC        SCON
  D:0088H         PUBLIC        TCON
  B:00B0H.3       PUBLIC        P33
  C:0CB8H         PUBLIC        DS18B20_GetTemp
  D:00D0H         PUBLIC        PSW
  -------         PROC          DS18B20_INIT
  -------         DO            
  B:0020H.0       SYMBOL        presence
  -------         ENDDO         
  C:0F6FH         LINE#         4
  C:0F6FH         LINE#         6
  C:0F71H         LINE#         7
  C:0F78H         LINE#         8
  C:0F7AH         LINE#         9
  C:0F81H         LINE#         10
  C:0F85H         LINE#         11
  C:0F8CH         LINE#         12
  C:0F8FH         LINE#         13
  -------         ENDPROC       DS18B20_INIT
  -------         PROC          _DS18B20_WRITEBYTE
  D:0052H         SYMBOL        dat
  -------         DO            
  D:0053H         SYMBOL        i
  -------         ENDDO         
  C:0EA7H         LINE#         15
  C:0EA9H         LINE#         17
  C:0EACH         LINE#         18
  C:0EAEH         LINE#         19
  C:0EB5H         LINE#         20
  C:0EBAH         LINE#         21
  C:0EC1H         LINE#         22
  C:0EC3H         LINE#         23
  C:0EC9H         LINE#         24
  C:0ED2H         LINE#         25
  -------         ENDPROC       _DS18B20_WRITEBYTE
  -------         PROC          DS18B20_READBYTE
  -------         DO            
  D:0052H         SYMBOL        i
  D:0053H         SYMBOL        dat
  -------         ENDDO         
  C:0E44H         LINE#         27
  C:0E44H         LINE#         28
  C:0E47H         LINE#         29
  C:0E49H         LINE#         30
  C:0E4BH         LINE#         31
  C:0E52H         LINE#         32
  C:0E54H         LINE#         33
  C:0E5BH         LINE#         34
  C:0E61H         LINE#         35
  C:0E67H         LINE#         36
  C:0E6EH         LINE#         37
BL51 BANKED LINKER/LOCATER V6.22                                                      03/19/2025  18:09:26  PAGE 13


  C:0E77H         LINE#         38
  C:0E79H         LINE#         39
  -------         ENDPROC       DS18B20_READBYTE
  -------         PROC          DS18B20_GETTEMP
  -------         DO            
  D:0051H         SYMBOL        tempL
  D:0007H         SYMBOL        tempH
  D:0006H         SYMBOL        temp
  -------         ENDDO         
  C:0CB8H         LINE#         41
  C:0CB8H         LINE#         44
  C:0CBFH         LINE#         45
  C:0CC4H         LINE#         46
  C:0CC9H         LINE#         47
  C:0CD0H         LINE#         48
  C:0CDDH         LINE#         49
  C:0CE2H         LINE#         50
  C:0CE7H         LINE#         51
  C:0CECH         LINE#         52
  C:0CEFH         LINE#         53
  C:0CF4H         LINE#         54
  C:0D05H         LINE#         55
  -------         ENDPROC       DS18B20_GETTEMP
  -------         ENDMOD        DS18B20

  -------         MODULE        EEPROM
  C:0000H         SYMBOL        _ICE_DUMMY_
  D:0080H         PUBLIC        P0
  D:0090H         PUBLIC        P1
  D:00A0H         PUBLIC        P2
  D:00B0H         PUBLIC        P3
  D:00C0H         PUBLIC        P4
  D:00C8H         PUBLIC        P5
  D:00E8H         PUBLIC        P6
  B:00A8H.7       PUBLIC        EA
  D:00F8H         PUBLIC        P7
  D:00A8H         PUBLIC        IE
  C:0F24H         PUBLIC        _IapErase
  D:00C5H         PUBLIC        IAP_CMD
  D:00B8H         PUBLIC        IP
  C:0FACH         PUBLIC        _IapRead
  C:101FH         SYMBOL        IapIdle
  D:00C3H         PUBLIC        IAP_ADDRH
  D:00D8H         PUBLIC        CCON
  D:00C4H         PUBLIC        IAP_ADDRL
  C:000EH         PUBLIC        _IapSafeWrite
  D:00F5H         PUBLIC        IAP_TPS
  D:0098H         PUBLIC        SCON
  D:0088H         PUBLIC        TCON
  D:00C7H         PUBLIC        IAP_CONTR
  D:00C2H         PUBLIC        IAP_DATA
  D:00C6H         PUBLIC        IAP_TRIG
  C:0EFCH         PUBLIC        _IapProgram
  D:00D0H         PUBLIC        PSW
  -------         PROC          IAPIDLE
  C:101FH         LINE#         4
  C:101FH         LINE#         5
BL51 BANKED LINKER/LOCATER V6.22                                                      03/19/2025  18:09:26  PAGE 14


  C:101FH         LINE#         6
  C:1022H         LINE#         7
  C:1024H         LINE#         8
  C:1026H         LINE#         9
  C:1029H         LINE#         10
  C:102BH         LINE#         11
  -------         ENDPROC       IAPIDLE
  -------         PROC          _IAPREAD
  D:0006H         SYMBOL        addr
  -------         DO            
  D:0007H         SYMBOL        dat
  -------         ENDDO         
  C:0FACH         LINE#         13
  C:0FACH         LINE#         14
  C:0FACH         LINE#         16
  C:0FAFH         LINE#         17
  C:0FB2H         LINE#         18
  C:0FB5H         LINE#         19
  C:0FB7H         LINE#         20
  C:0FBBH         LINE#         21
  C:0FBEH         LINE#         22
  C:0FC1H         LINE#         23
  C:0FC2H         LINE#         24
  C:0FC4H         LINE#         25
  C:0FC7H         LINE#         26
  C:0FC7H         LINE#         27
  -------         ENDPROC       _IAPREAD
  -------         PROC          _IAPPROGRAM
  D:0006H         SYMBOL        addr
  D:0005H         SYMBOL        dat
  -------         DO            
  D:0001H         SYMBOL        EA_SAVE
  -------         ENDDO         
  C:0EFCH         LINE#         29
  C:0EFCH         LINE#         30
  C:0EFCH         LINE#         31
  C:0F01H         LINE#         32
  C:0F03H         LINE#         34
  C:0F06H         LINE#         35
  C:0F09H         LINE#         36
  C:0F0CH         LINE#         37
  C:0F0EH         LINE#         38
  C:0F12H         LINE#         39
  C:0F14H         LINE#         40
  C:0F17H         LINE#         41
  C:0F1AH         LINE#         42
  C:0F1BH         LINE#         44
  C:0F1EH         LINE#         45
  C:0F23H         LINE#         46
  -------         ENDPROC       _IAPPROGRAM
  -------         PROC          _IAPERASE
  D:0006H         SYMBOL        addr
  -------         DO            
  D:0005H         SYMBOL        EA_SAVE
  -------         ENDDO         
  C:0F24H         LINE#         48
  C:0F24H         LINE#         49
BL51 BANKED LINKER/LOCATER V6.22                                                      03/19/2025  18:09:26  PAGE 15


  C:0F24H         LINE#         50
  C:0F29H         LINE#         51
  C:0F2BH         LINE#         53
  C:0F2EH         LINE#         54
  C:0F31H         LINE#         55
  C:0F34H         LINE#         56
  C:0F36H         LINE#         57
  C:0F3AH         LINE#         58
  C:0F3DH         LINE#         59
  C:0F40H         LINE#         60
  C:0F41H         LINE#         62
  C:0F44H         LINE#         63
  C:0F49H         LINE#         64
  -------         ENDPROC       _IAPERASE
  -------         PROC          _IAPSAFEWRITE
  D:0002H         SYMBOL        addr
  D:0005H         SYMBOL        dat
  C:000EH         LINE#         67
  C:0012H         LINE#         68
  C:0012H         LINE#         69
  C:0019H         LINE#         70
  C:0019H         LINE#         71
  C:001EH         LINE#         72
  C:001EH         LINE#         73
  -------         ENDPROC       _IAPSAFEWRITE
  -------         ENDMOD        EEPROM

  -------         MODULE        ?C?FPMUL
  C:0026H         PUBLIC        ?C?FPMUL
  -------         ENDMOD        ?C?FPMUL

  -------         MODULE        ?C?FPCMP
  C:012EH         PUBLIC        ?C?FPCMP
  C:012CH         PUBLIC        ?C?FPCMP3
  -------         ENDMOD        ?C?FPCMP

  -------         MODULE        ?C?FCAST
  C:01AFH         PUBLIC        ?C?FCASTC
  C:01AAH         PUBLIC        ?C?FCASTI
  C:01A5H         PUBLIC        ?C?FCASTL
  -------         ENDMOD        ?C?FCAST

  -------         MODULE        PRINTF
  D:0052H         PUBLIC        ?_PRINTF?BYTE
  D:0052H         PUBLIC        ?_SPRINTF?BYTE
  C:0665H         PUBLIC        _PRINTF
  C:065FH         PUBLIC        _SPRINTF
  -------         ENDMOD        PRINTF

  -------         MODULE        ?C?FPROUND
  C:022DH         PUBLIC        ?C?FPROUND
  -------         ENDMOD        ?C?FPROUND

  -------         MODULE        ?C?FPCONVERT
  C:025CH         PUBLIC        ?C?FPCONVERT
  -------         ENDMOD        ?C?FPCONVERT

BL51 BANKED LINKER/LOCATER V6.22                                                      03/19/2025  18:09:26  PAGE 16


  -------         MODULE        ?C?FPADD
  C:0366H         PUBLIC        ?C?FPADD
  C:0362H         PUBLIC        ?C?FPSUB
  -------         ENDMOD        ?C?FPADD

  -------         MODULE        ?C?FPDIV
  C:045AH         PUBLIC        ?C?FPDIV
  -------         ENDMOD        ?C?FPDIV

  -------         MODULE        ?C?FTNPWR
  C:0527H         PUBLIC        ?C?FTNPWR
  -------         ENDMOD        ?C?FTNPWR

  -------         MODULE        ?C?CLDPTR
  C:0567H         PUBLIC        ?C?CLDPTR
  -------         ENDMOD        ?C?CLDPTR

  -------         MODULE        ?C?CLDOPTR
  C:0580H         PUBLIC        ?C?CLDOPTR
  -------         ENDMOD        ?C?CLDOPTR

  -------         MODULE        ?C?CSTPTR
  C:05ADH         PUBLIC        ?C?CSTPTR
  -------         ENDMOD        ?C?CSTPTR

  -------         MODULE        ?C?LNEG
  C:05BFH         PUBLIC        ?C?LNEG
  -------         ENDMOD        ?C?LNEG

  -------         MODULE        ?C?PLDIIDATA
  C:05CDH         PUBLIC        ?C?PLDIIDATA
  -------         ENDMOD        ?C?PLDIIDATA

  -------         MODULE        ?C?CCASE
  C:05DDH         PUBLIC        ?C?CCASE
  -------         ENDMOD        ?C?CCASE

Program Size: data=108.5 xdata=0 code=4169
LINK/LOCATE RUN COMPLETE.  0 WARNING(S),  0 ERROR(S)
